; Function Attrs: nounwind uwtable
define i32 @phpdbg_print(i32 noundef %0, i32 noundef %1, ptr noundef %2, ...) local_unnamed_addr #0 {
  %4 = alloca [1 x %struct.__va_list_tag], align 16
  %5 = load i64, ptr getelementptr inbounds (%struct._zend_phpdbg_globals, ptr @phpdbg_globals, i64 0, i32 53), align 8
  %6 = and i64 %5, 4294967296
  %.not = icmp eq i64 %6, 0
  br i1 %.not, label %7, label %9

7:                                                ; preds = %3
  call void @llvm.va_start(ptr nonnull %4)
  %8 = call i32 @phpdbg_vprint(i32 noundef %0, i32 noundef %1, ptr noundef %2, ptr noundef nonnull %4)
  call void @llvm.va_end(ptr nonnull %4)
  br label %9

9:                                                ; preds = %3, %7
  %.0 = phi i32 [ %8, %7 ], [ 0, %3 ]
  ret i32 %.0
}